; Function Attrs: mustprogress uwtable
define void @_ZN2cv16structured_light15GrayCodePattern6createERKNS1_6ParamsE(ptr dead_on_unwind noalias nocapture writable writeonly sret(%"struct.cv::Ptr") align 8 %0, ptr noundef nonnull align 4 dereferenceable(8) %1) local_unnamed_addr #7 align 2 personality ptr @__gxx_personality_v0 {
_ZN2cv3PtrINS_16structured_light20GrayCodePattern_ImplEED2Ev.exit:
  %2 = alloca %"class.std::allocator.38", align 1
  %3 = alloca %"class.std::shared_ptr.26", align 16
  call void @llvm.lifetime.start.p0(i64 16, ptr nonnull %3)
  call void @llvm.lifetime.start.p0(i64 1, ptr nonnull %2), !noalias !37
  store ptr null, ptr %3, align 16, !alias.scope !40, !noalias !37
  %4 = getelementptr inbounds i8, ptr %3, i64 8
  call void @_ZNSt14__shared_countILN9__gnu_cxx12_Lock_policyE2EEC2IN2cv16structured_light20GrayCodePattern_ImplESaIvEJRKNS5_15GrayCodePattern6ParamsEEEERPT_St20_Sp_alloc_shared_tagIT0_EDpOT1_(ptr noundef nonnull align 8 dereferenceable(8) %4, ptr noundef nonnull align 8 dereferenceable(8) %3, ptr nonnull %2, ptr noundef nonnull align 4 dereferenceable(8) %1), !noalias !37
  call void @llvm.lifetime.end.p0(i64 1, ptr nonnull %2), !noalias !37
  %5 = load <2 x ptr>, ptr %3, align 16, !noalias !37
  call void @llvm.lifetime.end.p0(i64 16, ptr nonnull %3)
  store <2 x ptr> %5, ptr %0, align 8
  ret void
}